; Function Attrs: nounwind uwtable
define dso_local range(i32 0, 2) i32 @WPACKET_sub_memcpy__(ptr noundef captures(none) %0, ptr noundef readonly captures(none) %1, i64 noundef %2, i64 noundef %3) local_unnamed_addr #0 {
  %5 = alloca ptr, align 8
  %6 = alloca ptr, align 8
  call void @llvm.lifetime.start.p0(i64 8, ptr nonnull %6) #12
  %7 = getelementptr inbounds nuw i8, ptr %0, i64 40
  %8 = load ptr, ptr %7, align 8, !tbaa !4
  %.not.i = icmp eq ptr %8, null
  br i1 %.not.i, label %WPACKET_start_sub_packet_len__.exit.thread, label %9, !prof !24

9:                                                ; preds = %4
  %.not20.i = icmp eq i64 %3, 0
  br i1 %.not20.i, label %14, label %10

10:                                               ; preds = %9
  %11 = getelementptr inbounds nuw i8, ptr %0, i64 48
  %12 = load i8, ptr %11, align 8
  %13 = and i8 %12, 1
  %.not21.i = icmp eq i8 %13, 0
  br i1 %.not21.i, label %14, label %WPACKET_start_sub_packet_len__.exit.thread

14:                                               ; preds = %10, %9
  %15 = tail call noalias ptr @CRYPTO_zalloc(i64 noundef 40, ptr noundef nonnull @.str, i32 noundef 379) #12
  %16 = icmp eq ptr %15, null
  br i1 %16, label %WPACKET_start_sub_packet_len__.exit.thread, label %17

17:                                               ; preds = %14
  %18 = load ptr, ptr %7, align 8, !tbaa !4
  store ptr %18, ptr %15, align 8, !tbaa !25
  store ptr %15, ptr %7, align 8, !tbaa !4
  %19 = getelementptr inbounds nuw i8, ptr %0, i64 24
  %20 = load i64, ptr %19, align 8, !tbaa !16
  %21 = add i64 %20, %3
  %22 = getelementptr inbounds nuw i8, ptr %15, i64 24
  store i64 %21, ptr %22, align 8, !tbaa !27
  %23 = getelementptr inbounds nuw i8, ptr %15, i64 16
  store i64 %3, ptr %23, align 8, !tbaa !28
  %24 = getelementptr inbounds nuw i8, ptr %15, i64 8
  br i1 %.not20.i, label %WPACKET_start_sub_packet_len__.exit.thread13, label %WPACKET_start_sub_packet_len__.exit

WPACKET_start_sub_packet_len__.exit.thread13:     ; preds = %17
  store i64 0, ptr %24, align 8, !tbaa !29
  call void @llvm.lifetime.end.p0(i64 8, ptr nonnull %6) #12
  br label %26

WPACKET_start_sub_packet_len__.exit.thread:       ; preds = %4, %10, %14
  call void @llvm.lifetime.end.p0(i64 8, ptr nonnull %6) #12
  br label %40

WPACKET_start_sub_packet_len__.exit:              ; preds = %17
  store i64 %20, ptr %24, align 8, !tbaa !29
  %25 = call i32 @WPACKET_allocate_bytes(ptr noundef nonnull %0, i64 noundef %3, ptr noundef nonnull %6)
  call void @llvm.lifetime.end.p0(i64 8, ptr nonnull %6) #12
  %.not = icmp eq i32 %25, 0
  br i1 %.not, label %40, label %26

26:                                               ; preds = %WPACKET_start_sub_packet_len__.exit.thread13, %WPACKET_start_sub_packet_len__.exit
  call void @llvm.lifetime.start.p0(i64 8, ptr nonnull %5) #12
  %27 = icmp eq i64 %2, 0
  br i1 %27, label %33, label %28

28:                                               ; preds = %26
  %29 = call i32 @WPACKET_allocate_bytes(ptr noundef nonnull %0, i64 noundef %2, ptr noundef nonnull %5)
  %.not.i8 = icmp eq i32 %29, 0
  br i1 %.not.i8, label %WPACKET_memcpy.exit, label %30

30:                                               ; preds = %28
  %31 = load ptr, ptr %5, align 8, !tbaa !23
  %.not7.i = icmp eq ptr %31, null
  br i1 %.not7.i, label %33, label %32

32:                                               ; preds = %30
  call void @llvm.memcpy.p0.p0.i64(ptr nonnull align 1 %31, ptr readonly align 1 %1, i64 %2, i1 false)
  br label %33

WPACKET_memcpy.exit:                              ; preds = %28
  call void @llvm.lifetime.end.p0(i64 8, ptr nonnull %5) #12
  br label %40

33:                                               ; preds = %26, %32, %30
  call void @llvm.lifetime.end.p0(i64 8, ptr nonnull %5) #12
  %34 = load ptr, ptr %7, align 8, !tbaa !4
  %35 = icmp eq ptr %34, null
  br i1 %35, label %WPACKET_close.exit.thread, label %36

36:                                               ; preds = %33
  %37 = load ptr, ptr %34, align 8, !tbaa !25
  %38 = icmp eq ptr %37, null
  br i1 %38, label %WPACKET_close.exit.thread, label %WPACKET_close.exit

WPACKET_close.exit:                               ; preds = %36
  %39 = call fastcc i32 @wpacket_intern_close(ptr noundef nonnull %0, ptr noundef %34, i32 noundef 1)
  %.fr = freeze i32 %39
  %.not7 = icmp eq i32 %.fr, 0
  br i1 %.not7, label %WPACKET_close.exit.thread, label %40

WPACKET_close.exit.thread:                        ; preds = %33, %36, %WPACKET_close.exit
  br label %40

40:                                               ; preds = %WPACKET_close.exit.thread, %WPACKET_close.exit, %WPACKET_memcpy.exit, %WPACKET_start_sub_packet_len__.exit.thread, %WPACKET_start_sub_packet_len__.exit
  %.0 = phi i32 [ 0, %WPACKET_memcpy.exit ], [ 0, %WPACKET_start_sub_packet_len__.exit ], [ 0, %WPACKET_start_sub_packet_len__.exit.thread ], [ 0, %WPACKET_close.exit.thread ], [ 1, %WPACKET_close.exit ]
  ret i32 %.0
}